target datalayout = "e-m:e-p270:32:32-p271:32:32-p272:64:64-i64:64-i128:128-f80:128-n8:16:32:64-S128"
target triple = "x86_64-pc-linux-gnu"

%struct.RelationData = type { %struct.RelFileLocator, ptr, i32, i32, i8, i8, i8, i8, i8, i32, i32, i32, i32, ptr, ptr, i32, %struct.LockInfoData, ptr, ptr, ptr, ptr, ptr, i8, ptr, ptr, ptr, ptr, ptr, ptr, i32, ptr, i8, ptr, ptr, i32, i8, i32, ptr, i8, ptr, ptr, ptr, ptr, ptr, ptr, ptr, i32, ptr, ptr, ptr, ptr, ptr, ptr, ptr, ptr, ptr, ptr, ptr, ptr, ptr, ptr, ptr, ptr, ptr, ptr, ptr, i32, i8, ptr }
%struct.RelFileLocator = type { i32, i32, i32 }
%struct.LockInfoData = type { %struct.LockRelId }
%struct.LockRelId = type { i32, i32 }
%struct.SpGistCache = type { %struct.spgConfigOut, %struct.SpGistTypeDesc, %struct.SpGistTypeDesc, %struct.SpGistTypeDesc, %struct.SpGistTypeDesc, %struct.SpGistLUPCache }
%struct.spgConfigOut = type { i32, i32, i32, i8, i8 }
%struct.SpGistTypeDesc = type { i32, i16, i8, i8, i8 }
%struct.SpGistLUPCache = type { [8 x %struct.SpGistLastUsedPage] }
%struct.SpGistLastUsedPage = type { i32, i32 }
%struct.SpGistMetaPageData = type { i32, %struct.SpGistLUPCache }
%struct.PageHeaderData = type { %struct.PageXLogRecPtr, i16, i16, i16, i16, i16, i16, i32, [0 x %struct.ItemIdData] }
%struct.PageXLogRecPtr = type { i32, i32 }
%struct.ItemIdData = type { i32 }

@LocalBufferBlockPointers = external global ptr, align 8
@BufferBlocks = external global ptr, align 8

; Function Attrs: inlinehint nounwind uwtable
define internal ptr @BufferGetBlock(i32 noundef %0) #2 {
  %2 = alloca ptr, align 8
  %3 = alloca i32, align 4
  store i32 %0, ptr %3, align 4
  %4 = load i32, ptr %3, align 4
  %5 = icmp slt i32 %4, 0
  br i1 %5, label %6, label %14

6:                                                ; preds = %1
  %7 = load ptr, ptr @LocalBufferBlockPointers, align 8
  %8 = load i32, ptr %3, align 4
  %9 = sub i32 0, %8
  %10 = sub i32 %9, 1
  %11 = sext i32 %10 to i64
  %12 = getelementptr inbounds ptr, ptr %7, i64 %11
  %13 = load ptr, ptr %12, align 8
  store ptr %13, ptr %2, align 8
  br label %21

14:                                               ; preds = %1
  %15 = load ptr, ptr @BufferBlocks, align 8
  %16 = load i32, ptr %3, align 4
  %17 = sub i32 %16, 1
  %18 = sext i32 %17 to i64
  %19 = mul i64 %18, 8192
  %20 = getelementptr inbounds nuw i8, ptr %15, i64 %19
  store ptr %20, ptr %2, align 8
  br label %21

21:                                               ; preds = %14, %6
  %22 = load ptr, ptr %2, align 8
  ret ptr %22
}

; Function Attrs: inlinehint nounwind uwtable
define internal ptr @PageGetContents(ptr noundef %0) #2 {
  %2 = alloca ptr, align 8
  store ptr %0, ptr %2, align 8
  %3 = load ptr, ptr %2, align 8
  %4 = getelementptr inbounds nuw i8, ptr %3, i64 24
  ret ptr %4
}

; Function Attrs: inlinehint nounwind uwtable
define internal ptr @BufferGetPage(i32 noundef %0) #2 {
  %2 = alloca i32, align 4
  store i32 %0, ptr %2, align 4
  %3 = load i32, ptr %2, align 4
  %4 = call ptr @BufferGetBlock(i32 noundef %3)
  ret ptr %4
}

; Function Attrs: nounwind uwtable
define dso_local void @SpGistUpdateMetaPage(ptr noundef %0) #0 {
  %2 = alloca ptr, align 8
  %3 = alloca ptr, align 8
  %4 = alloca i32, align 4
  %5 = alloca ptr, align 8
  %6 = alloca ptr, align 8
  store ptr %0, ptr %2, align 8
  call void @llvm.lifetime.start.p0(i64 8, ptr %3) #7
  %7 = load ptr, ptr %2, align 8
  %8 = getelementptr inbounds nuw %struct.RelationData, ptr %7, i32 0, i32 64
  %9 = load ptr, ptr %8, align 8
  store ptr %9, ptr %3, align 8
  %10 = load ptr, ptr %3, align 8
  %11 = icmp ne ptr %10, null
  br i1 %11, label %12, label %40

12:                                               ; preds = %1
  call void @llvm.lifetime.start.p0(i64 4, ptr %4) #7
  %13 = load ptr, ptr %2, align 8
  %14 = call i32 @ReadBuffer(ptr noundef %13, i32 noundef 0)
  store i32 %14, ptr %4, align 4
  %15 = load i32, ptr %4, align 4
  %16 = call zeroext i1 @ConditionalLockBuffer(i32 noundef %15)
  br i1 %16, label %17, label %37

17:                                               ; preds = %12
  call void @llvm.lifetime.start.p0(i64 8, ptr %5) #7
  %18 = load i32, ptr %4, align 4
  %19 = call ptr @BufferGetPage(i32 noundef %18)
  store ptr %19, ptr %5, align 8
  call void @llvm.lifetime.start.p0(i64 8, ptr %6) #7
  %20 = load ptr, ptr %5, align 8
  %21 = call ptr @PageGetContents(ptr noundef %20)
  store ptr %21, ptr %6, align 8
  %22 = load ptr, ptr %6, align 8
  %23 = getelementptr inbounds nuw %struct.SpGistMetaPageData, ptr %22, i32 0, i32 1
  %24 = load ptr, ptr %3, align 8
  %25 = getelementptr inbounds nuw %struct.SpGistCache, ptr %24, i32 0, i32 5
  call void @llvm.memcpy.p0.p0.i64(ptr align 4 %23, ptr align 4 %25, i64 64, i1 false)
  %26 = load ptr, ptr %6, align 8
  %27 = getelementptr inbounds nuw i8, ptr %26, i64 68
  %28 = load ptr, ptr %5, align 8
  %29 = ptrtoint ptr %27 to i64
  %30 = ptrtoint ptr %28 to i64
  %31 = sub i64 %29, %30
  %32 = trunc i64 %31 to i16
  %33 = load ptr, ptr %5, align 8
  %34 = getelementptr inbounds nuw %struct.PageHeaderData, ptr %33, i32 0, i32 3
  store i16 %32, ptr %34, align 4
  %35 = load i32, ptr %4, align 4
  call void @MarkBufferDirty(i32 noundef %35)
  %36 = load i32, ptr %4, align 4
  call void @UnlockReleaseBuffer(i32 noundef %36)
  call void @llvm.lifetime.end.p0(i64 8, ptr %6) #7
  call void @llvm.lifetime.end.p0(i64 8, ptr %5) #7
  br label %39

37:                                               ; preds = %12
  %38 = load i32, ptr %4, align 4
  call void @ReleaseBuffer(i32 noundef %38)
  br label %39

39:                                               ; preds = %37, %17
  call void @llvm.lifetime.end.p0(i64 4, ptr %4) #7
  br label %40

40:                                               ; preds = %39, %1
  call void @llvm.lifetime.end.p0(i64 8, ptr %3) #7
  ret void
}