; Function Attrs: nounwind uwtable
define dso_local void @SpGistUpdateMetaPage(ptr noundef %0) local_unnamed_addr #0 {
  %2 = getelementptr inbounds nuw i8, ptr %0, i64 456
  %3 = load ptr, ptr %2, align 8
  %.not = icmp eq ptr %3, null
  br i1 %.not, label %25, label %4

4:                                                ; preds = %1
  %5 = tail call i32 @ReadBuffer(ptr noundef nonnull %0, i32 noundef 0) #10
  %6 = tail call zeroext i1 @ConditionalLockBuffer(i32 noundef %5) #10
  br i1 %6, label %7, label %24

7:                                                ; preds = %4
  %8 = icmp slt i32 %5, 0
  br i1 %8, label %9, label %15

9:                                                ; preds = %7
  %10 = load ptr, ptr @LocalBufferBlockPointers, align 8
  %11 = xor i32 %5, -1
  %12 = zext nneg i32 %11 to i64
  %13 = getelementptr inbounds nuw ptr, ptr %10, i64 %12
  %14 = load ptr, ptr %13, align 8
  br label %BufferGetPage.exit

15:                                               ; preds = %7
  %16 = load ptr, ptr @BufferBlocks, align 8
  %17 = add nsw i32 %5, -1
  %18 = sext i32 %17 to i64
  %19 = shl nsw i64 %18, 13
  %20 = getelementptr inbounds nuw i8, ptr %16, i64 %19
  br label %BufferGetPage.exit

BufferGetPage.exit:                               ; preds = %9, %15
  %.0.i.i = phi ptr [ %14, %9 ], [ %20, %15 ]
  %21 = getelementptr inbounds nuw i8, ptr %.0.i.i, i64 28
  %22 = getelementptr inbounds nuw i8, ptr %3, i64 64
  tail call void @llvm.memcpy.p0.p0.i64(ptr noundef nonnull align 4 dereferenceable(64) %21, ptr noundef nonnull align 4 dereferenceable(64) %22, i64 64, i1 false)
  %23 = getelementptr inbounds nuw i8, ptr %.0.i.i, i64 12
  store i16 92, ptr %23, align 4
  tail call void @MarkBufferDirty(i32 noundef %5) #10
  tail call void @UnlockReleaseBuffer(i32 noundef %5) #10
  br label %25

24:                                               ; preds = %4
  tail call void @ReleaseBuffer(i32 noundef %5) #10
  br label %25

25:                                               ; preds = %BufferGetPage.exit, %24, %1
  ret void
}